; ModuleID = 'bench/linux/original/apic_noop.ll'
source_filename = "bench/linux/original/apic_noop.ll"
target datalayout = "e-m:e-p270:32:32-p271:32:32-p272:64:64-i64:64-i128:128-f80:128-n8:16:32:64-S128"
target triple = "x86_64-unknown-linux-gnu"

%struct.apic = type { ptr, ptr, ptr, ptr, ptr, ptr, ptr, ptr, ptr, ptr, ptr, ptr, i8, ptr, ptr, ptr, i32, ptr, ptr, ptr, ptr, ptr, ptr, ptr, ptr, ptr, ptr, ptr, ptr, ptr }
%struct.cpuinfo_x86 = type { i8, i8, i8, i8, i32, [5 x i32], i8, i8, i8, i32, i32, %union.anon, [16 x i8], [64 x i8], %struct.cpuinfo_topology, i32, i32, i32, i32, i32, i32, i64, i64, i16, i16, i16, i16, i8, i32, i8, i8 }
%union.anon = type { i64, [88 x i8] }
%struct.cpuinfo_topology = type { i32, i32, i32, i32, i32, i32, i32, i32, i32, i32 }

@.str = private unnamed_addr constant [5 x i8] c"noop\00", align 1
@apic_noop = dso_local local_unnamed_addr global %struct.apic { ptr @noop_apic_eoi, ptr null, ptr @noop_apic_write, ptr @noop_apic_read, ptr null, ptr null, ptr @noop_send_IPI, ptr @noop_send_IPI_mask, ptr @noop_send_IPI_mask_allbutself, ptr @noop_send_IPI_allbutself, ptr @noop_send_IPI_all, ptr @noop_send_IPI_self, i8 2, ptr @apic_flat_calc_apicid, ptr @noop_apic_icr_read, ptr @noop_apic_icr_write, i32 254, ptr null, ptr null, ptr null, ptr @default_check_apicid_used, ptr null, ptr @default_ioapic_phys_id_map, ptr @default_cpu_present_to_apicid, ptr @noop_phys_pkg_id, ptr @noop_get_apic_id, ptr null, ptr @noop_wakeup_secondary_cpu, ptr null, ptr @.str }, section ".data..ro_after_init", align 8
@boot_cpu_data = external dso_local global %struct.cpuinfo_x86, align 8
@apic_is_disabled = external dso_local local_unnamed_addr global i8, align 1
@.str.1 = private unnamed_addr constant [33 x i8] c"arch/x86/kernel/apic/apic_noop.c\00", align 1

; Function Attrs: fn_ret_thunk_extern mustprogress nofree norecurse nosync nounwind null_pointer_is_valid willreturn memory(none)
define internal void @noop_apic_eoi() #0 align 16 {
  ret void
}

; Function Attrs: fn_ret_thunk_extern nounwind null_pointer_is_valid
define internal void @noop_apic_write(i32 %0, i32 %1) #1 align 16 {
  %3 = load volatile i64, ptr getelementptr inbounds (%struct.cpuinfo_x86, ptr @boot_cpu_data, i64 0, i32 11, i32 0), align 8
  %4 = and i64 %3, 512
  %5 = icmp ne i64 %4, 0
  %6 = load i8, ptr @apic_is_disabled, align 1, !range !5
  %7 = icmp eq i8 %6, 0
  %8 = select i1 %5, i1 %7, i1 false
  br i1 %8, label %9, label %10, !prof !6

9:                                                ; preds = %2
  tail call void asm sideeffect "329: nop\0A\09.pushsection .discard.instr_begin\0A\09.long 329b - .\0A\09.popsection\0A\09", "i,~{dirflag},~{fpsr},~{flags}"(i32 329) #3, !srcloc !7
  tail call void asm sideeffect "1:\09.byte 0x0f, 0x0b\0A.pushsection __bug_table,\22aw\22\0A2:\09.long 1b - .\09# bug_entry::bug_addr\0A\09.long ${0:c} - .\09# bug_entry::file\0A\09.word ${1:c}\09# bug_entry::line\0A\09.word ${2:c}\09# bug_entry::flags\0A\09.org 2b+${3:c}\0A.popsection\0A998:\0A\09.pushsection .discard.reachable\0A\09.long 998b\0A\09.popsection\0A\09", "i,i,i,i,~{dirflag},~{fpsr},~{flags}"(ptr nonnull @.str.1, i32 44, i32 2307, i64 12) #3, !srcloc !8
  tail call void asm sideeffect "330: nop\0A\09.pushsection .discard.instr_end\0A\09.long 330b - .\0A\09.popsection\0A\09", "i,~{dirflag},~{fpsr},~{flags}"(i32 330) #3, !srcloc !9
  br label %10

10:                                               ; preds = %9, %2
  ret void
}

; Function Attrs: fn_ret_thunk_extern nounwind null_pointer_is_valid
define internal noundef i32 @noop_apic_read(i32 %0) #1 align 16 {
  %2 = load volatile i64, ptr getelementptr inbounds (%struct.cpuinfo_x86, ptr @boot_cpu_data, i64 0, i32 11, i32 0), align 8
  %3 = and i64 %2, 512
  %4 = icmp ne i64 %3, 0
  %5 = load i8, ptr @apic_is_disabled, align 1, !range !5
  %6 = icmp eq i8 %5, 0
  %7 = select i1 %4, i1 %6, i1 false
  br i1 %7, label %8, label %9, !prof !6

8:                                                ; preds = %1
  tail call void asm sideeffect "327: nop\0A\09.pushsection .discard.instr_begin\0A\09.long 327b - .\0A\09.popsection\0A\09", "i,~{dirflag},~{fpsr},~{flags}"(i32 327) #3, !srcloc !10
  tail call void asm sideeffect "1:\09.byte 0x0f, 0x0b\0A.pushsection __bug_table,\22aw\22\0A2:\09.long 1b - .\09# bug_entry::bug_addr\0A\09.long ${0:c} - .\09# bug_entry::file\0A\09.word ${1:c}\09# bug_entry::line\0A\09.word ${2:c}\09# bug_entry::flags\0A\09.org 2b+${3:c}\0A.popsection\0A998:\0A\09.pushsection .discard.reachable\0A\09.long 998b\0A\09.popsection\0A\09", "i,i,i,i,~{dirflag},~{fpsr},~{flags}"(ptr nonnull @.str.1, i32 38, i32 2307, i64 12) #3, !srcloc !11
  tail call void asm sideeffect "328: nop\0A\09.pushsection .discard.instr_end\0A\09.long 328b - .\0A\09.popsection\0A\09", "i,~{dirflag},~{fpsr},~{flags}"(i32 328) #3, !srcloc !12
  br label %9

9:                                                ; preds = %8, %1
  ret i32 0
}

; Function Attrs: fn_ret_thunk_extern mustprogress nofree norecurse nosync nounwind null_pointer_is_valid willreturn memory(none)
define internal void @noop_send_IPI(i32 %0, i32 %1) #0 align 16 {
  ret void
}

; Function Attrs: fn_ret_thunk_extern mustprogress nofree norecurse nosync nounwind null_pointer_is_valid willreturn memory(none)
define internal void @noop_send_IPI_mask(ptr nocapture readnone %0, i32 %1) #0 align 16 {
  ret void
}

; Function Attrs: fn_ret_thunk_extern mustprogress nofree norecurse nosync nounwind null_pointer_is_valid willreturn memory(none)
define internal void @noop_send_IPI_mask_allbutself(ptr nocapture readnone %0, i32 %1) #0 align 16 {
  ret void
}

; Function Attrs: fn_ret_thunk_extern mustprogress nofree norecurse nosync nounwind null_pointer_is_valid willreturn memory(none)
define internal void @noop_send_IPI_allbutself(i32 %0) #0 align 16 {
  ret void
}

; Function Attrs: fn_ret_thunk_extern mustprogress nofree norecurse nosync nounwind null_pointer_is_valid willreturn memory(none)
define internal void @noop_send_IPI_all(i32 %0) #0 align 16 {
  ret void
}

; Function Attrs: fn_ret_thunk_extern mustprogress nofree norecurse nosync nounwind null_pointer_is_valid willreturn memory(none)
define internal void @noop_send_IPI_self(i32 %0) #0 align 16 {
  ret void
}

; Function Attrs: null_pointer_is_valid
declare dso_local i32 @apic_flat_calc_apicid(i32 noundef) #2

; Function Attrs: fn_ret_thunk_extern mustprogress nofree norecurse nosync nounwind null_pointer_is_valid willreturn memory(none)
define internal noundef i64 @noop_apic_icr_read() #0 align 16 {
  ret i64 0
}

; Function Attrs: fn_ret_thunk_extern mustprogress nofree norecurse nosync nounwind null_pointer_is_valid willreturn memory(none)
define internal void @noop_apic_icr_write(i32 %0, i32 %1) #0 align 16 {
  ret void
}

; Function Attrs: null_pointer_is_valid
declare dso_local zeroext i1 @default_check_apicid_used(ptr noundef, i32 noundef) #2

; Function Attrs: null_pointer_is_valid
declare dso_local void @default_ioapic_phys_id_map(ptr noundef, ptr noundef) #2

; Function Attrs: null_pointer_is_valid
declare dso_local i32 @default_cpu_present_to_apicid(i32 noundef) #2

; Function Attrs: fn_ret_thunk_extern mustprogress nofree norecurse nosync nounwind null_pointer_is_valid willreturn memory(none)
define internal noundef i32 @noop_phys_pkg_id(i32 %0, i32 %1) #0 align 16 {
  ret i32 0
}

; Function Attrs: fn_ret_thunk_extern mustprogress nofree norecurse nosync nounwind null_pointer_is_valid willreturn memory(none)
define internal noundef i32 @noop_get_apic_id(i32 %0) #0 align 16 {
  ret i32 0
}

; Function Attrs: fn_ret_thunk_extern mustprogress nofree norecurse nosync nounwind null_pointer_is_valid willreturn memory(none)
define internal noundef i32 @noop_wakeup_secondary_cpu(i32 %0, i64 %1) #0 align 16 {
  ret i32 -1
}


!llvm.module.flags = !{!0, !1, !2, !3, !4}

!0 = !{i32 1, !"wchar_size", i32 2}
!1 = !{i32 8, !"cf-protection-branch", i32 1}
!2 = !{i32 4, !"function_return_thunk_extern", i32 1}
!3 = !{i32 4, !"indirect_branch_cs_prefix", i32 1}
!4 = !{i32 4, !"SkipRaxSetup", i32 1}
!5 = !{i8 0, i8 2}
!6 = !{!"branch_weights", i32 1, i32 2000}
!7 = !{i64 2154166018, i64 2154165827, i64 2154165879, i64 2154165925, i64 2154165953}
!8 = !{i64 2154166092, i64 2154166121, i64 2154166167, i64 2154166225, i64 2154166279, i64 2154166333, i64 2154166388, i64 2154166419, i64 2154166727, i64 2154166733, i64 2154166780, i64 2154166803, i64 2154166829}
!9 = !{i64 2154167293, i64 2154167104, i64 2154167154, i64 2154167200, i64 2154167228}
!10 = !{i64 2154156740, i64 2154156549, i64 2154156601, i64 2154156647, i64 2154156675}
!11 = !{i64 2154156814, i64 2154156843, i64 2154156889, i64 2154156947, i64 2154157001, i64 2154157055, i64 2154157110, i64 2154157141, i64 2154157449, i64 2154157455, i64 2154157502, i64 2154157525, i64 2154157551}
!12 = !{i64 2154158015, i64 2154157826, i64 2154157876, i64 2154157922, i64 2154157950}
